; Function Attrs: mustprogress uwtable
define hidden void @_ZN5ceres8internal17BlockSparseMatrix10FreeValuesERPd(ptr nocapture noundef nonnull readonly align 8 dereferenceable(56) %0, ptr nocapture noundef nonnull align 8 dereferenceable(8) %1) local_unnamed_addr #0 align 2 personality ptr @__gxx_personality_v0 {
  %3 = alloca %"class.google::base::CheckOpMessageBuilder", align 8
  %4 = alloca %"struct.google::CheckOpString", align 8
  %5 = alloca %"class.google::LogMessageFatal", align 8
  %6 = getelementptr inbounds i8, ptr %0, i64 8
  %7 = load i8, ptr %6, align 8
  %8 = and i8 %7, 1
  %.not = icmp eq i8 %8, 0
  %9 = load ptr, ptr %1, align 8
  br i1 %.not, label %10, label %13

10:                                               ; preds = %2
  %11 = icmp eq ptr %9, null
  br i1 %11, label %_ZN6google12Check_EQImplI9cudaErrorS1_EEPNSt7__cxx1112basic_stringIcSt11char_traitsIcESaIcEEERKT_RKT0_PKc.exit.thread, label %12

12:                                               ; preds = %10
  tail call void @_ZdaPv(ptr noundef nonnull %9) #28
  br label %_ZN6google12Check_EQImplI9cudaErrorS1_EEPNSt7__cxx1112basic_stringIcSt11char_traitsIcESaIcEEERKT_RKT0_PKc.exit.thread

13:                                               ; preds = %2
  %14 = tail call i32 @cudaFreeHost(ptr noundef %9)
  %15 = icmp eq i32 %14, 0
  br i1 %15, label %_ZN6google12Check_EQImplI9cudaErrorS1_EEPNSt7__cxx1112basic_stringIcSt11char_traitsIcESaIcEEERKT_RKT0_PKc.exit.thread, label %16

16:                                               ; preds = %13
  call void @llvm.lifetime.start.p0(i64 8, ptr nonnull %3)
  call void @_ZN6google4base21CheckOpMessageBuilderC1EPKc(ptr noundef nonnull align 8 dereferenceable(8) %3, ptr noundef nonnull @.str.37)
  %17 = load ptr, ptr %3, align 8
  %18 = invoke noundef nonnull align 8 dereferenceable(8) ptr @_ZNSolsEi(ptr noundef nonnull align 8 dereferenceable(8) %17, i32 noundef 0)
          to label %_ZN6google22MakeCheckOpValueStringI9cudaErrorEEvPSoRKT_.exit.i.i unwind label %23

_ZN6google22MakeCheckOpValueStringI9cudaErrorEEvPSoRKT_.exit.i.i: ; preds = %16
  %19 = invoke noundef ptr @_ZN6google4base21CheckOpMessageBuilder7ForVar2Ev(ptr noundef nonnull align 8 dereferenceable(8) %3)
          to label %20 unwind label %23

20:                                               ; preds = %_ZN6google22MakeCheckOpValueStringI9cudaErrorEEvPSoRKT_.exit.i.i
  %21 = invoke noundef nonnull align 8 dereferenceable(8) ptr @_ZNSolsEi(ptr noundef nonnull align 8 dereferenceable(8) %19, i32 noundef %14)
          to label %_ZN6google22MakeCheckOpValueStringI9cudaErrorEEvPSoRKT_.exit4.i.i unwind label %23

_ZN6google22MakeCheckOpValueStringI9cudaErrorEEvPSoRKT_.exit4.i.i: ; preds = %20
  %22 = invoke noundef ptr @_ZN6google4base21CheckOpMessageBuilder9NewStringB5cxx11Ev(ptr noundef nonnull align 8 dereferenceable(8) %3)
          to label %_ZN6google12Check_EQImplI9cudaErrorS1_EEPNSt7__cxx1112basic_stringIcSt11char_traitsIcESaIcEEERKT_RKT0_PKc.exit unwind label %23

23:                                               ; preds = %_ZN6google22MakeCheckOpValueStringI9cudaErrorEEvPSoRKT_.exit4.i.i, %20, %_ZN6google22MakeCheckOpValueStringI9cudaErrorEEvPSoRKT_.exit.i.i, %16
  %24 = landingpad { ptr, i32 }
          cleanup
  call void @_ZN6google4base21CheckOpMessageBuilderD1Ev(ptr noundef nonnull align 8 dereferenceable(8) %3) #26
  resume { ptr, i32 } %24

_ZN6google12Check_EQImplI9cudaErrorS1_EEPNSt7__cxx1112basic_stringIcSt11char_traitsIcESaIcEEERKT_RKT0_PKc.exit: ; preds = %_ZN6google22MakeCheckOpValueStringI9cudaErrorEEvPSoRKT_.exit4.i.i
  call void @_ZN6google4base21CheckOpMessageBuilderD1Ev(ptr noundef nonnull align 8 dereferenceable(8) %3) #26
  call void @llvm.lifetime.end.p0(i64 8, ptr nonnull %3)
  store ptr %22, ptr %4, align 8
  %.not9 = icmp eq ptr %22, null
  br i1 %.not9, label %_ZN6google12Check_EQImplI9cudaErrorS1_EEPNSt7__cxx1112basic_stringIcSt11char_traitsIcESaIcEEERKT_RKT0_PKc.exit.thread, label %25

25:                                               ; preds = %_ZN6google12Check_EQImplI9cudaErrorS1_EEPNSt7__cxx1112basic_stringIcSt11char_traitsIcESaIcEEERKT_RKT0_PKc.exit
  call void @_ZN6google15LogMessageFatalC1EPKciRKNS_13CheckOpStringE(ptr noundef nonnull align 8 dereferenceable(96) %5, ptr noundef nonnull @.str, i32 noundef 835, ptr noundef nonnull align 8 dereferenceable(8) %4)
  %26 = invoke noundef nonnull align 8 dereferenceable(8) ptr @_ZN6google10LogMessage6streamEv(ptr noundef nonnull align 8 dereferenceable(96) %5)
          to label %27 unwind label %28

27:                                               ; preds = %25
  call void @_ZN6google15LogMessageFatalD1Ev(ptr noundef nonnull align 8 dereferenceable(96) %5) #25
  unreachable

28:                                               ; preds = %25
  %29 = landingpad { ptr, i32 }
          cleanup
  call void @_ZN6google15LogMessageFatalD1Ev(ptr noundef nonnull align 8 dereferenceable(96) %5) #25
  unreachable

_ZN6google12Check_EQImplI9cudaErrorS1_EEPNSt7__cxx1112basic_stringIcSt11char_traitsIcESaIcEEERKT_RKT0_PKc.exit.thread: ; preds = %13, %_ZN6google12Check_EQImplI9cudaErrorS1_EEPNSt7__cxx1112basic_stringIcSt11char_traitsIcESaIcEEERKT_RKT0_PKc.exit, %10, %12
  store ptr null, ptr %1, align 8
  ret void
}